; Function Attrs: mustprogress nofree norecurse nosync nounwind willreturn memory(readwrite, inaccessiblemem: none) uwtable
define internal noundef i32 @spdif_header_ac3(ptr noundef readonly captures(none) %0, ptr noundef readonly captures(none) %1) #3 {
  %3 = getelementptr inbounds nuw i8, ptr %0, i64 24
  %4 = load ptr, ptr %3, align 8, !tbaa !4
  %5 = getelementptr inbounds nuw i8, ptr %1, i64 24
  %6 = load ptr, ptr %5, align 8, !tbaa !41
  %7 = getelementptr inbounds nuw i8, ptr %6, i64 5
  %8 = load i8, ptr %7, align 1, !tbaa !53
  %9 = and i8 %8, 7
  %10 = zext nneg i8 %9 to i32
  %11 = shl nuw nsw i32 %10, 8
  %12 = or disjoint i32 %11, 1
  %13 = getelementptr inbounds nuw i8, ptr %4, i64 8
  store i32 %12, ptr %13, align 8, !tbaa !51
  %14 = getelementptr inbounds nuw i8, ptr %4, i64 16
  store i32 6144, ptr %14, align 8, !tbaa !48
  ret i32 0
}